; Function Attrs: alwaysinline norecurse nounwind uwtable
define internal void @_ZN5faiss12_GLOBAL__N_115hammings_knn_mcINS_17HammingComputer20EEEviPKhS4_mmmPiPl.omp_outlined(ptr noalias noundef readonly captures(none) %0, ptr noalias readnone captures(none) %1, ptr noundef nonnull readonly align 8 captures(none) dereferenceable(8) %2, ptr noundef nonnull readonly align 8 captures(none) dereferenceable(8) %3, ptr noundef nonnull readonly align 8 captures(none) dereferenceable(8) %4, ptr noundef nonnull readonly align 8 captures(none) dereferenceable(24) %5, ptr noundef nonnull readonly align 8 captures(none) dereferenceable(8) %6, ptr noundef nonnull readonly align 4 captures(none) dereferenceable(4) %7) #17 personality ptr @__gxx_personality_v0 {
  %9 = alloca i64, align 8
  %10 = alloca i64, align 8
  %11 = alloca i64, align 8
  %12 = alloca i32, align 4
  %13 = load i64, ptr %2, align 8, !tbaa !4
  %.not = icmp eq i64 %13, 0
  br i1 %.not, label %111, label %14

14:                                               ; preds = %8
  %15 = add i64 %13, -1
  call void @llvm.lifetime.start.p0(i64 8, ptr nonnull %9) #5
  store i64 0, ptr %9, align 8, !tbaa !4
  call void @llvm.lifetime.start.p0(i64 8, ptr nonnull %10) #5
  store i64 %15, ptr %10, align 8, !tbaa !4
  call void @llvm.lifetime.start.p0(i64 8, ptr nonnull %11) #5
  store i64 1, ptr %11, align 8, !tbaa !4
  call void @llvm.lifetime.start.p0(i64 4, ptr nonnull %12) #5
  store i32 0, ptr %12, align 4, !tbaa !10
  %16 = load i32, ptr %0, align 4, !tbaa !10
  call void @__kmpc_for_static_init_8u(ptr nonnull @1, i32 %16, i32 34, ptr nonnull %12, ptr nonnull %9, ptr nonnull %10, ptr nonnull %11, i64 1, i64 1)
  %17 = load i64, ptr %10, align 8, !tbaa !4
  %18 = call i64 @llvm.umin.i64(i64 %17, i64 %15)
  store i64 %18, ptr %10, align 8, !tbaa !4
  %19 = load i64, ptr %9, align 8, !tbaa !4
  %.not27 = icmp ugt i64 %19, %18
  br i1 %.not27, label %._crit_edge25, label %.lr.ph24

.lr.ph24:                                         ; preds = %14
  %20 = load ptr, ptr %5, align 8
  %21 = load ptr, ptr %6, align 8
  %22 = load i64, ptr %3, align 8, !tbaa !4
  %23 = load i64, ptr %4, align 8, !tbaa !4
  %24 = icmp ult i64 %22, %23
  br i1 %24, label %.lr.ph24.split, label %._crit_edge25

.lr.ph24.split:                                   ; preds = %.lr.ph24, %._crit_edge
  %25 = phi i64 [ %38, %._crit_edge ], [ %18, %.lr.ph24 ]
  %26 = phi i64 [ %39, %._crit_edge ], [ %23, %.lr.ph24 ]
  %.02022 = phi i64 [ %40, %._crit_edge ], [ %19, %.lr.ph24 ]
  %27 = load i64, ptr %3, align 8, !tbaa !4
  %28 = icmp ult i64 %27, %26
  br i1 %28, label %.lr.ph, label %._crit_edge

.lr.ph:                                           ; preds = %.lr.ph24.split
  %29 = getelementptr inbounds nuw %"struct.faiss::HCounterState.30", ptr %20, i64 %.02022
  %30 = getelementptr inbounds nuw i8, ptr %29, i64 16
  %31 = getelementptr inbounds nuw i8, ptr %29, i64 24
  %32 = getelementptr inbounds nuw i8, ptr %29, i64 32
  %33 = getelementptr inbounds nuw i8, ptr %29, i64 40
  %34 = getelementptr inbounds nuw i8, ptr %29, i64 52
  %35 = getelementptr inbounds nuw i8, ptr %29, i64 48
  %36 = getelementptr inbounds nuw i8, ptr %29, i64 8
  %37 = getelementptr inbounds nuw i8, ptr %29, i64 44
  br label %43

._crit_edge.loopexit:                             ; preds = %_ZN5faiss13HCounterStateINS_17HammingComputer20EE14update_counterEPKhm.exit
  %.pre = load i64, ptr %10, align 8, !tbaa !4
  br label %._crit_edge

._crit_edge:                                      ; preds = %._crit_edge.loopexit, %.lr.ph24.split
  %38 = phi i64 [ %.pre, %._crit_edge.loopexit ], [ %25, %.lr.ph24.split ]
  %39 = phi i64 [ %109, %._crit_edge.loopexit ], [ %26, %.lr.ph24.split ]
  %40 = add nuw i64 %.02022, 1
  %41 = add i64 %38, 1
  %42 = icmp ult i64 %40, %41
  br i1 %42, label %.lr.ph24.split, label %._crit_edge25, !llvm.loop !772

43:                                               ; preds = %.lr.ph, %_ZN5faiss13HCounterStateINS_17HammingComputer20EE14update_counterEPKhm.exit
  %.021 = phi i64 [ %27, %.lr.ph ], [ %108, %_ZN5faiss13HCounterStateINS_17HammingComputer20EE14update_counterEPKhm.exit ]
  %44 = load i32, ptr %7, align 4, !tbaa !10
  %45 = sext i32 %44 to i64
  %46 = mul i64 %.021, %45
  %47 = getelementptr inbounds nuw i8, ptr %21, i64 %46
  %48 = load i64, ptr %47, align 8, !tbaa !4
  %49 = load i64, ptr %30, align 8, !tbaa !318
  %50 = xor i64 %49, %48
  %51 = call range(i64 0, 65) i64 @llvm.ctpop.i64(i64 %50)
  %52 = trunc nuw nsw i64 %51 to i32
  %53 = getelementptr inbounds nuw i8, ptr %47, i64 8
  %54 = load i64, ptr %53, align 8, !tbaa !4
  %55 = load i64, ptr %31, align 8, !tbaa !320
  %56 = xor i64 %55, %54
  %57 = call range(i64 0, 65) i64 @llvm.ctpop.i64(i64 %56)
  %58 = trunc nuw nsw i64 %57 to i32
  %59 = add nuw nsw i32 %58, %52
  %60 = getelementptr inbounds nuw i8, ptr %47, i64 16
  %61 = load i32, ptr %60, align 4, !tbaa !10
  %62 = load i32, ptr %32, align 8, !tbaa !321
  %63 = xor i32 %62, %61
  %64 = call range(i32 0, 33) i32 @llvm.ctpop.i32(i32 %63)
  %65 = add nuw nsw i32 %59, %64
  %66 = load i32, ptr %33, align 8, !tbaa !773
  %.not.i = icmp sgt i32 %65, %66
  br i1 %.not.i, label %_ZN5faiss13HCounterStateINS_17HammingComputer20EE14update_counterEPKhm.exit, label %67

67:                                               ; preds = %43
  %68 = icmp samesign ult i32 %65, %66
  %69 = load i32, ptr %34, align 4, !tbaa !774
  br i1 %68, label %70, label %95

70:                                               ; preds = %67
  %71 = load ptr, ptr %36, align 8, !tbaa !650
  %72 = mul nsw i32 %69, %65
  %73 = load ptr, ptr %29, align 8, !tbaa !643
  %74 = zext nneg i32 %65 to i64
  %75 = getelementptr inbounds nuw i32, ptr %73, i64 %74
  %76 = load i32, ptr %75, align 4, !tbaa !10
  %77 = add nsw i32 %76, 1
  store i32 %77, ptr %75, align 4, !tbaa !10
  %78 = add nsw i32 %76, %72
  %79 = sext i32 %78 to i64
  %80 = getelementptr inbounds i64, ptr %71, i64 %79
  store i64 %.021, ptr %80, align 8, !tbaa !4
  %81 = load i32, ptr %37, align 4, !tbaa !775
  %82 = add nsw i32 %81, 1
  %83 = load i32, ptr %34, align 4, !tbaa !774
  %.promoted.i = load i32, ptr %33, align 1
  store i32 %82, ptr %37, align 4, !tbaa !775
  %84 = icmp eq i32 %82, %83
  br i1 %84, label %.lr.ph.i, label %_ZN5faiss13HCounterStateINS_17HammingComputer20EE14update_counterEPKhm.exit

.lr.ph.i:                                         ; preds = %70
  %85 = zext i32 %.promoted.i to i64
  br label %86

86:                                               ; preds = %89, %.lr.ph.i
  %indvars.iv.i = phi i64 [ %85, %.lr.ph.i ], [ %indvars.iv.next.i, %89 ]
  %87 = trunc nuw i64 %indvars.iv.i to i32
  %88 = icmp sgt i32 %87, 0
  br i1 %88, label %89, label %_ZN5faiss13HCounterStateINS_17HammingComputer20EE14update_counterEPKhm.exit

89:                                               ; preds = %86
  %indvars.iv.next.i = add nsw i64 %indvars.iv.i, -1
  %indvars.i = trunc i64 %indvars.iv.next.i to i32
  store i32 %indvars.i, ptr %33, align 8, !tbaa !773
  %90 = and i64 %indvars.iv.next.i, 4294967295
  %91 = getelementptr inbounds nuw i32, ptr %73, i64 %90
  %92 = load i32, ptr %91, align 4, !tbaa !10
  store i32 %92, ptr %35, align 8, !tbaa !776
  %93 = sub nsw i32 %82, %92
  store i32 %93, ptr %37, align 4, !tbaa !775
  %94 = icmp eq i32 %92, 0
  br i1 %94, label %86, label %_ZN5faiss13HCounterStateINS_17HammingComputer20EE14update_counterEPKhm.exit, !llvm.loop !777

95:                                               ; preds = %67
  %96 = load i32, ptr %35, align 8, !tbaa !776
  %97 = icmp slt i32 %96, %69
  br i1 %97, label %98, label %_ZN5faiss13HCounterStateINS_17HammingComputer20EE14update_counterEPKhm.exit

98:                                               ; preds = %95
  %99 = load ptr, ptr %36, align 8, !tbaa !650
  %100 = mul nsw i32 %69, %65
  %101 = add nsw i32 %96, 1
  store i32 %101, ptr %35, align 8, !tbaa !776
  %102 = add nsw i32 %96, %100
  %103 = sext i32 %102 to i64
  %104 = getelementptr inbounds i64, ptr %99, i64 %103
  store i64 %.021, ptr %104, align 8, !tbaa !4
  %105 = load ptr, ptr %29, align 8, !tbaa !643
  %106 = zext nneg i32 %65 to i64
  %107 = getelementptr inbounds nuw i32, ptr %105, i64 %106
  store i32 %101, ptr %107, align 4, !tbaa !10
  br label %_ZN5faiss13HCounterStateINS_17HammingComputer20EE14update_counterEPKhm.exit

_ZN5faiss13HCounterStateINS_17HammingComputer20EE14update_counterEPKhm.exit: ; preds = %86, %89, %43, %70, %95, %98
  %108 = add nuw i64 %.021, 1
  %109 = load i64, ptr %4, align 8, !tbaa !4
  %110 = icmp ult i64 %108, %109
  br i1 %110, label %43, label %._crit_edge.loopexit, !llvm.loop !778

._crit_edge25:                                    ; preds = %._crit_edge, %.lr.ph24, %14
  call void @__kmpc_for_static_fini(ptr nonnull @1, i32 %16)
  call void @llvm.lifetime.end.p0(i64 4, ptr nonnull %12) #5
  call void @llvm.lifetime.end.p0(i64 8, ptr nonnull %11) #5
  call void @llvm.lifetime.end.p0(i64 8, ptr nonnull %10) #5
  call void @llvm.lifetime.end.p0(i64 8, ptr nonnull %9) #5
  br label %111

111:                                              ; preds = %._crit_edge25, %8
  ret void
}